target datalayout = "e-m:e-p270:32:32-p271:32:32-p272:64:64-i64:64-i128:128-f80:128-n8:16:32:64-S128"
target triple = "x86_64-pc-linux-gnu"

%struct._scsi_task_data = type { i32, ptr, ptr }
%struct._itlq_nexus_t = type { i32, i32, i16, i16, i16, i16, i32, i32, i32, %struct.nstime_t, %struct.nstime_t, ptr }
%struct.nstime_t = type { i64, i32 }
%struct._scsi_osd_extra_data_t = type { i16, i8, %union.anon, i32, i8 }
%union.anon = type { %struct.anon.0 }
%struct.anon.0 = type { i32, i32, i32, i32, i32, i32 }

@hf_scsi_osd_getsetattrib = internal global i32 0, align 4
@hf_scsi_osd_timestamps_control = internal global i32 0, align 4
@hf_scsi_osd_ricv = internal global i32 0, align 4
@hf_scsi_osd_request_nonce = internal global i32 0, align 4
@hf_scsi_osd_diicvo = internal global i32 0, align 4
@hf_scsi_osd_doicvo = internal global i32 0, align 4
@hf_scsi_osd_partition_id = internal global i32 0, align 4
@hf_scsi_osd_user_object_id = internal global i32 0, align 4
@ett_osd_security_parameters = internal global i32 0, align 4
@.str.294 = private unnamed_addr constant [20 x i8] c"Security Parameters\00", align 1

; Function Attrs: null_pointer_is_valid sspstrong uwtable
define internal void @dissect_osd_attribute_data_in(ptr noundef %0, ptr noundef %1, i32 noundef %2, ptr noundef %3, ptr noundef %4, ptr noundef %5) #3 {
  %7 = alloca ptr, align 8
  %8 = alloca ptr, align 8
  %9 = alloca i32, align 4
  %10 = alloca ptr, align 8
  %11 = alloca ptr, align 8
  %12 = alloca ptr, align 8
  %13 = alloca i8, align 1
  %14 = alloca ptr, align 8
  %15 = alloca i32, align 4
  store ptr %0, ptr %7, align 8
  store ptr %1, ptr %8, align 8
  store i32 %2, ptr %9, align 4
  store ptr %3, ptr %10, align 8
  store ptr %4, ptr %11, align 8
  store ptr %5, ptr %12, align 8
  call void @llvm.lifetime.start.p0(i64 1, ptr %13) #6
  store i8 0, ptr %13, align 1
  call void @llvm.lifetime.start.p0(i64 8, ptr %14) #6
  store ptr null, ptr %14, align 8
  %16 = load ptr, ptr %11, align 8
  %17 = icmp ne ptr %16, null
  br i1 %17, label %18, label %39

18:                                               ; preds = %6
  %19 = load ptr, ptr %11, align 8
  %20 = getelementptr inbounds nuw %struct._scsi_task_data, ptr %19, i32 0, i32 1
  %21 = load ptr, ptr %20, align 8
  %22 = icmp ne ptr %21, null
  br i1 %22, label %23, label %39

23:                                               ; preds = %18
  %24 = load ptr, ptr %11, align 8
  %25 = getelementptr inbounds nuw %struct._scsi_task_data, ptr %24, i32 0, i32 1
  %26 = load ptr, ptr %25, align 8
  %27 = getelementptr inbounds nuw %struct._itlq_nexus_t, ptr %26, i32 0, i32 11
  %28 = load ptr, ptr %27, align 8
  %29 = icmp ne ptr %28, null
  br i1 %29, label %30, label %39

30:                                               ; preds = %23
  %31 = load ptr, ptr %11, align 8
  %32 = getelementptr inbounds nuw %struct._scsi_task_data, ptr %31, i32 0, i32 1
  %33 = load ptr, ptr %32, align 8
  %34 = getelementptr inbounds nuw %struct._itlq_nexus_t, ptr %33, i32 0, i32 11
  %35 = load ptr, ptr %34, align 8
  store ptr %35, ptr %14, align 8
  %36 = load ptr, ptr %14, align 8
  %37 = getelementptr inbounds nuw %struct._scsi_osd_extra_data_t, ptr %36, i32 0, i32 1
  %38 = load i8, ptr %37, align 2
  store i8 %38, ptr %13, align 1
  br label %40

39:                                               ; preds = %23, %18, %6
  store i32 1, ptr %15, align 4
  br label %64

40:                                               ; preds = %30
  %41 = load i8, ptr %13, align 1
  %42 = zext i8 %41 to i32
  switch i32 %42, label %63 [
    i32 2, label %63
    i32 3, label %43
  ]

43:                                               ; preds = %40
  %44 = load ptr, ptr %14, align 8
  %45 = getelementptr inbounds nuw %struct._scsi_osd_extra_data_t, ptr %44, i32 0, i32 2
  %46 = getelementptr inbounds nuw %struct.anon.0, ptr %45, i32 0, i32 2
  %47 = load i32, ptr %46, align 4
  %48 = icmp ne i32 %47, 0
  br i1 %48, label %49, label %62

49:                                               ; preds = %43
  %50 = load ptr, ptr %7, align 8
  %51 = load ptr, ptr %8, align 8
  %52 = load ptr, ptr %14, align 8
  %53 = getelementptr inbounds nuw %struct._scsi_osd_extra_data_t, ptr %52, i32 0, i32 2
  %54 = getelementptr inbounds nuw %struct.anon.0, ptr %53, i32 0, i32 3
  %55 = load i32, ptr %54, align 4
  %56 = load ptr, ptr %10, align 8
  %57 = load ptr, ptr %12, align 8
  %58 = load ptr, ptr %14, align 8
  %59 = getelementptr inbounds nuw %struct._scsi_osd_extra_data_t, ptr %58, i32 0, i32 4
  %60 = load i8, ptr %59, align 4, !range !9, !noundef !10
  %61 = trunc i8 %60 to i1
  call void @dissect_osd_attributes_list(ptr noundef %50, ptr noundef %51, i32 noundef %55, ptr noundef %56, ptr noundef %57, i1 noundef zeroext %61)
  br label %62

62:                                               ; preds = %49, %43
  br label %63

63:                                               ; preds = %40, %62, %40
  store i32 0, ptr %15, align 4
  br label %64

64:                                               ; preds = %63, %39
  call void @llvm.lifetime.end.p0(i64 8, ptr %14) #6
  call void @llvm.lifetime.end.p0(i64 1, ptr %13) #6
  %65 = load i32, ptr %15, align 4
  switch i32 %65, label %67 [
    i32 0, label %66
    i32 1, label %66
  ]

66:                                               ; preds = %64, %64
  ret void

67:                                               ; preds = %64
  unreachable
}

; Function Attrs: null_pointer_is_valid sspstrong uwtable
define internal i32 @dissect_osd_security_parameters(ptr noundef %0, i32 noundef %1, ptr noundef %2) #3 {
  %4 = alloca ptr, align 8
  %5 = alloca i32, align 4
  %6 = alloca ptr, align 8
  %7 = alloca ptr, align 8
  store ptr %0, ptr %4, align 8
  store i32 %1, ptr %5, align 4
  store ptr %2, ptr %6, align 8
  call void @llvm.lifetime.start.p0(i64 8, ptr %7) #6
  %8 = load ptr, ptr %6, align 8
  %9 = load ptr, ptr %4, align 8
  %10 = load i32, ptr %5, align 4
  %11 = load i32, ptr @ett_osd_security_parameters, align 4
  %12 = call ptr @proto_tree_add_subtree(ptr noundef %8, ptr noundef %9, i32 noundef %10, i32 noundef 40, i32 noundef %11, ptr noundef null, ptr noundef @.str.294)
  store ptr %12, ptr %7, align 8
  %13 = load ptr, ptr %7, align 8
  %14 = load i32, ptr @hf_scsi_osd_ricv, align 4
  %15 = load ptr, ptr %4, align 8
  %16 = load i32, ptr %5, align 4
  %17 = call ptr @proto_tree_add_item(ptr noundef %13, i32 noundef %14, ptr noundef %15, i32 noundef %16, i32 noundef 20, i32 noundef 0)
  %18 = load i32, ptr %5, align 4
  %19 = add i32 %18, 20
  store i32 %19, ptr %5, align 4
  %20 = load ptr, ptr %7, align 8
  %21 = load i32, ptr @hf_scsi_osd_request_nonce, align 4
  %22 = load ptr, ptr %4, align 8
  %23 = load i32, ptr %5, align 4
  %24 = call ptr @proto_tree_add_item(ptr noundef %20, i32 noundef %21, ptr noundef %22, i32 noundef %23, i32 noundef 12, i32 noundef 0)
  %25 = load i32, ptr %5, align 4
  %26 = add i32 %25, 12
  store i32 %26, ptr %5, align 4
  %27 = load ptr, ptr %7, align 8
  %28 = load i32, ptr @hf_scsi_osd_diicvo, align 4
  %29 = load ptr, ptr %4, align 8
  %30 = load i32, ptr %5, align 4
  %31 = call ptr @proto_tree_add_item(ptr noundef %27, i32 noundef %28, ptr noundef %29, i32 noundef %30, i32 noundef 4, i32 noundef 0)
  %32 = load i32, ptr %5, align 4
  %33 = add i32 %32, 4
  store i32 %33, ptr %5, align 4
  %34 = load ptr, ptr %7, align 8
  %35 = load i32, ptr @hf_scsi_osd_doicvo, align 4
  %36 = load ptr, ptr %4, align 8
  %37 = load i32, ptr %5, align 4
  %38 = call ptr @proto_tree_add_item(ptr noundef %34, i32 noundef %35, ptr noundef %36, i32 noundef %37, i32 noundef 4, i32 noundef 0)
  %39 = load i32, ptr %5, align 4
  %40 = add i32 %39, 4
  store i32 %40, ptr %5, align 4
  %41 = load i32, ptr %5, align 4
  call void @llvm.lifetime.end.p0(i64 8, ptr %7) #6
  ret i32 %41
}

; Function Attrs: null_pointer_is_valid sspstrong uwtable
define internal ptr @dissect_osd_user_object_id(ptr noundef %0, i32 noundef %1, ptr noundef %2) #3 {
  %4 = alloca ptr, align 8
  %5 = alloca i32, align 4
  %6 = alloca ptr, align 8
  %7 = alloca ptr, align 8
  store ptr %0, ptr %4, align 8
  store i32 %1, ptr %5, align 4
  store ptr %2, ptr %6, align 8
  call void @llvm.lifetime.start.p0(i64 8, ptr %7) #6
  %8 = load ptr, ptr %6, align 8
  %9 = load i32, ptr @hf_scsi_osd_user_object_id, align 4
  %10 = load ptr, ptr %4, align 8
  %11 = load i32, ptr %5, align 4
  %12 = call ptr @proto_tree_add_item(ptr noundef %8, i32 noundef %9, ptr noundef %10, i32 noundef %11, i32 noundef 8, i32 noundef 0)
  store ptr %12, ptr %7, align 8
  %13 = load ptr, ptr %7, align 8
  call void @llvm.lifetime.end.p0(i64 8, ptr %7) #6
  ret ptr %13
}

; Function Attrs: null_pointer_is_valid sspstrong uwtable
define internal void @dissect_osd_timestamps_control(ptr noundef %0, i32 noundef %1, ptr noundef %2) #3 {
  %4 = alloca ptr, align 8
  %5 = alloca i32, align 4
  %6 = alloca ptr, align 8
  store ptr %0, ptr %4, align 8
  store i32 %1, ptr %5, align 4
  store ptr %2, ptr %6, align 8
  %7 = load ptr, ptr %6, align 8
  %8 = load i32, ptr @hf_scsi_osd_timestamps_control, align 4
  %9 = load ptr, ptr %4, align 8
  %10 = load i32, ptr %5, align 4
  %11 = call ptr @proto_tree_add_item(ptr noundef %7, i32 noundef %8, ptr noundef %9, i32 noundef %10, i32 noundef 1, i32 noundef 0)
  ret void
}

; Function Attrs: null_pointer_is_valid sspstrong uwtable
define internal void @dissect_osd_getsetattrib(ptr noundef %0, i32 noundef %1, ptr noundef %2, ptr noundef %3) #3 {
  %5 = alloca ptr, align 8
  %6 = alloca i32, align 4
  %7 = alloca ptr, align 8
  %8 = alloca ptr, align 8
  %9 = alloca ptr, align 8
  store ptr %0, ptr %5, align 8
  store i32 %1, ptr %6, align 4
  store ptr %2, ptr %7, align 8
  store ptr %3, ptr %8, align 8
  %10 = load ptr, ptr %8, align 8
  %11 = icmp ne ptr %10, null
  br i1 %11, label %12, label %39

12:                                               ; preds = %4
  %13 = load ptr, ptr %8, align 8
  %14 = getelementptr inbounds nuw %struct._scsi_task_data, ptr %13, i32 0, i32 1
  %15 = load ptr, ptr %14, align 8
  %16 = icmp ne ptr %15, null
  br i1 %16, label %17, label %39

17:                                               ; preds = %12
  %18 = load ptr, ptr %8, align 8
  %19 = getelementptr inbounds nuw %struct._scsi_task_data, ptr %18, i32 0, i32 1
  %20 = load ptr, ptr %19, align 8
  %21 = getelementptr inbounds nuw %struct._itlq_nexus_t, ptr %20, i32 0, i32 11
  %22 = load ptr, ptr %21, align 8
  %23 = icmp ne ptr %22, null
  br i1 %23, label %24, label %39

24:                                               ; preds = %17
  call void @llvm.lifetime.start.p0(i64 8, ptr %9) #6
  %25 = load ptr, ptr %8, align 8
  %26 = getelementptr inbounds nuw %struct._scsi_task_data, ptr %25, i32 0, i32 1
  %27 = load ptr, ptr %26, align 8
  %28 = getelementptr inbounds nuw %struct._itlq_nexus_t, ptr %27, i32 0, i32 11
  %29 = load ptr, ptr %28, align 8
  store ptr %29, ptr %9, align 8
  %30 = load ptr, ptr %5, align 8
  %31 = load i32, ptr %6, align 4
  %32 = call zeroext i8 @tvb_get_uint8(ptr noundef %30, i32 noundef %31)
  %33 = zext i8 %32 to i32
  %34 = ashr i32 %33, 4
  %35 = and i32 %34, 3
  %36 = trunc i32 %35 to i8
  %37 = load ptr, ptr %9, align 8
  %38 = getelementptr inbounds nuw %struct._scsi_osd_extra_data_t, ptr %37, i32 0, i32 1
  store i8 %36, ptr %38, align 2
  call void @llvm.lifetime.end.p0(i64 8, ptr %9) #6
  br label %39

39:                                               ; preds = %24, %17, %12, %4
  %40 = load ptr, ptr %7, align 8
  %41 = load i32, ptr @hf_scsi_osd_getsetattrib, align 4
  %42 = load ptr, ptr %5, align 8
  %43 = load i32, ptr %6, align 4
  %44 = call ptr @proto_tree_add_item(ptr noundef %40, i32 noundef %41, ptr noundef %42, i32 noundef %43, i32 noundef 1, i32 noundef 0)
  ret void
}

; Function Attrs: null_pointer_is_valid sspstrong uwtable
define internal void @dissect_osd_remove(ptr noundef %0, ptr noundef %1, ptr noundef %2, i32 noundef %3, i1 noundef zeroext %4, i1 noundef zeroext %5, i32 noundef %6, ptr noundef %7, ptr noundef %8, ptr noundef %9) #3 {
  %11 = alloca ptr, align 8
  %12 = alloca ptr, align 8
  %13 = alloca ptr, align 8
  %14 = alloca i32, align 4
  %15 = alloca i8, align 1
  %16 = alloca i8, align 1
  %17 = alloca i32, align 4
  %18 = alloca ptr, align 8
  %19 = alloca ptr, align 8
  %20 = alloca ptr, align 8
  store ptr %0, ptr %11, align 8
  store ptr %1, ptr %12, align 8
  store ptr %2, ptr %13, align 8
  store i32 %3, ptr %14, align 4
  %21 = zext i1 %4 to i8
  store i8 %21, ptr %15, align 1
  %22 = zext i1 %5 to i8
  store i8 %22, ptr %16, align 1
  store i32 %6, ptr %17, align 4
  store ptr %7, ptr %18, align 8
  store ptr %8, ptr %19, align 8
  store ptr %9, ptr %20, align 8
  %23 = load i8, ptr %15, align 1, !range !9, !noundef !10
  %24 = trunc i8 %23 to i1
  br i1 %24, label %25, label %83

25:                                               ; preds = %10
  %26 = load i8, ptr %16, align 1, !range !9, !noundef !10
  %27 = trunc i8 %26 to i1
  br i1 %27, label %28, label %83

28:                                               ; preds = %25
  %29 = load ptr, ptr %11, align 8
  %30 = load i32, ptr %14, align 4
  %31 = load ptr, ptr %13, align 8
  call void @dissect_osd_option(ptr noundef %29, i32 noundef %30, ptr noundef %31)
  %32 = load i32, ptr %14, align 4
  %33 = add i32 %32, 1
  store i32 %33, ptr %14, align 4
  %34 = load ptr, ptr %11, align 8
  %35 = load i32, ptr %14, align 4
  %36 = load ptr, ptr %13, align 8
  %37 = load ptr, ptr %18, align 8
  call void @dissect_osd_getsetattrib(ptr noundef %34, i32 noundef %35, ptr noundef %36, ptr noundef %37)
  %38 = load i32, ptr %14, align 4
  %39 = add i32 %38, 1
  store i32 %39, ptr %14, align 4
  %40 = load ptr, ptr %11, align 8
  %41 = load i32, ptr %14, align 4
  %42 = load ptr, ptr %13, align 8
  call void @dissect_osd_timestamps_control(ptr noundef %40, i32 noundef %41, ptr noundef %42)
  %43 = load i32, ptr %14, align 4
  %44 = add i32 %43, 1
  store i32 %44, ptr %14, align 4
  %45 = load i32, ptr %14, align 4
  %46 = add i32 %45, 3
  store i32 %46, ptr %14, align 4
  %47 = load ptr, ptr %12, align 8
  %48 = load ptr, ptr %11, align 8
  %49 = load i32, ptr %14, align 4
  %50 = load ptr, ptr %13, align 8
  %51 = load i32, ptr @hf_scsi_osd_partition_id, align 4
  %52 = load ptr, ptr %20, align 8
  %53 = call ptr @dissect_osd_partition_id(ptr noundef %47, ptr noundef %48, i32 noundef %49, ptr noundef %50, i32 noundef %51, ptr noundef %52, i1 noundef zeroext false, i1 noundef zeroext false)
  %54 = load i32, ptr %14, align 4
  %55 = add i32 %54, 8
  store i32 %55, ptr %14, align 4
  %56 = load ptr, ptr %11, align 8
  %57 = load i32, ptr %14, align 4
  %58 = load ptr, ptr %13, align 8
  %59 = call ptr @dissect_osd_user_object_id(ptr noundef %56, i32 noundef %57, ptr noundef %58)
  %60 = load i32, ptr %14, align 4
  %61 = add i32 %60, 8
  store i32 %61, ptr %14, align 4
  %62 = load i32, ptr %14, align 4
  %63 = add i32 %62, 20
  store i32 %63, ptr %14, align 4
  %64 = load ptr, ptr %12, align 8
  %65 = load ptr, ptr %11, align 8
  %66 = load i32, ptr %14, align 4
  %67 = load ptr, ptr %13, align 8
  %68 = load ptr, ptr %18, align 8
  %69 = call i32 @dissect_osd_attribute_parameters(ptr noundef %64, ptr noundef %65, i32 noundef %66, ptr noundef %67, ptr noundef %68)
  %70 = load i32, ptr %14, align 4
  %71 = add i32 %70, 28
  store i32 %71, ptr %14, align 4
  %72 = load ptr, ptr %11, align 8
  %73 = load i32, ptr %14, align 4
  %74 = load ptr, ptr %13, align 8
  call void @dissect_osd_capability(ptr noundef %72, i32 noundef %73, ptr noundef %74)
  %75 = load i32, ptr %14, align 4
  %76 = add i32 %75, 80
  store i32 %76, ptr %14, align 4
  %77 = load ptr, ptr %11, align 8
  %78 = load i32, ptr %14, align 4
  %79 = load ptr, ptr %13, align 8
  %80 = call i32 @dissect_osd_security_parameters(ptr noundef %77, i32 noundef %78, ptr noundef %79)
  %81 = load i32, ptr %14, align 4
  %82 = add i32 %81, 40
  store i32 %82, ptr %14, align 4
  br label %83

83:                                               ; preds = %28, %25, %10
  %84 = load i8, ptr %15, align 1, !range !9, !noundef !10
  %85 = trunc i8 %84 to i1
  br i1 %85, label %86, label %96

86:                                               ; preds = %83
  %87 = load i8, ptr %16, align 1, !range !9, !noundef !10
  %88 = trunc i8 %87 to i1
  br i1 %88, label %96, label %89

89:                                               ; preds = %86
  %90 = load ptr, ptr %12, align 8
  %91 = load ptr, ptr %11, align 8
  %92 = load i32, ptr %14, align 4
  %93 = load ptr, ptr %13, align 8
  %94 = load ptr, ptr %18, align 8
  %95 = load ptr, ptr %20, align 8
  call void @dissect_osd_attribute_data_out(ptr noundef %90, ptr noundef %91, i32 noundef %92, ptr noundef %93, ptr noundef %94, ptr noundef %95)
  br label %96

96:                                               ; preds = %89, %86, %83
  %97 = load i8, ptr %15, align 1, !range !9, !noundef !10
  %98 = trunc i8 %97 to i1
  br i1 %98, label %109, label %99

99:                                               ; preds = %96
  %100 = load i8, ptr %16, align 1, !range !9, !noundef !10
  %101 = trunc i8 %100 to i1
  br i1 %101, label %109, label %102

102:                                              ; preds = %99
  %103 = load ptr, ptr %12, align 8
  %104 = load ptr, ptr %11, align 8
  %105 = load i32, ptr %14, align 4
  %106 = load ptr, ptr %13, align 8
  %107 = load ptr, ptr %18, align 8
  %108 = load ptr, ptr %20, align 8
  call void @dissect_osd_attribute_data_in(ptr noundef %103, ptr noundef %104, i32 noundef %105, ptr noundef %106, ptr noundef %107, ptr noundef %108)
  br label %109

109:                                              ; preds = %102, %99, %96
  ret void
}